(dp0
S'region'
p1
S'chaney2017_global_dev'
p2
sS'list'
p3
cnumpy.core.multiarray
_reconstruct
p4
(cnumpy
ndarray
p5
(I0
tp6
S'b'
p7
tp8
Rp9
(I1
(I1
tp10
cnumpy
dtype
p11
(S'S16'
p12
I0
I1
tp13
Rp14
(I3
S'|'
p15
NNNI16
I1
I0
tp16
bI00
S'tile:1,is:1,js:1'
p17
tp18
bsS'dir'
p19
S'predefined_input'
p20
s.